; Function Attrs: mustprogress nofree nounwind willreturn memory(read, inaccessiblemem: none) uwtable
define dso_local noundef zeroext i1 @_ZN13cmSystemTools14VersionCompareENS_9CompareOpERKNSt7__cxx1112basic_stringIcSt11char_traitsIcESaIcEEES8_(i32 noundef %0, ptr noundef nonnull readonly align 8 captures(none) dereferenceable(32) %1, ptr noundef nonnull readonly align 8 captures(none) dereferenceable(32) %2) local_unnamed_addr #20 align 2 {
  %4 = load ptr, ptr %1, align 8, !tbaa !13
  %5 = load ptr, ptr %2, align 8, !tbaa !13
  br label %6

6:                                                ; preds = %37, %3
  %.048.i = phi ptr [ %5, %3 ], [ %spec.select.i, %37 ]
  %.045.i = phi ptr [ %4, %3 ], [ %.4.i, %37 ]
  %7 = load i8, ptr %.045.i, align 1, !tbaa !26
  %8 = add i8 %7, -48
  %or.cond.i = icmp ult i8 %8, 10
  br i1 %or.cond.i, label %.critedge.i.preheader, label %9

9:                                                ; preds = %6
  %10 = load i8, ptr %.048.i, align 1, !tbaa !26
  %11 = add i8 %10, -48
  %or.cond58.i = icmp ult i8 %11, 10
  br i1 %or.cond58.i, label %.critedge.i.preheader, label %_ZN12_GLOBAL__N_114VersionCompareEN13cmSystemTools9CompareOpEPKcS3_.exit

.critedge.i.preheader:                            ; preds = %9, %6
  br label %.critedge.i

.critedge.i:                                      ; preds = %.critedge.i.preheader, %.critedge.i
  %.146.i = phi ptr [ %14, %.critedge.i ], [ %.045.i, %.critedge.i.preheader ]
  %12 = load i8, ptr %.146.i, align 1, !tbaa !26
  %13 = icmp eq i8 %12, 48
  %14 = getelementptr inbounds nuw i8, ptr %.146.i, i64 1
  br i1 %13, label %.critedge.i, label %.preheader65.i, !llvm.loop !718

.preheader65.i:                                   ; preds = %.critedge.i, %.preheader65.i
  %.149.i = phi ptr [ %17, %.preheader65.i ], [ %.048.i, %.critedge.i ]
  %15 = load i8, ptr %.149.i, align 1, !tbaa !26
  %16 = icmp eq i8 %15, 48
  %17 = getelementptr inbounds nuw i8, ptr %.149.i, i64 1
  br i1 %16, label %.preheader65.i, label %.preheader.i, !llvm.loop !719

.preheader.i:                                     ; preds = %.preheader65.i, %.preheader.i
  %.247.i = phi ptr [ %20, %.preheader.i ], [ %.146.i, %.preheader65.i ]
  %18 = load i8, ptr %.247.i, align 1, !tbaa !26
  %19 = add i8 %18, -48
  %or.cond59.i = icmp ult i8 %19, 10
  %20 = getelementptr inbounds nuw i8, ptr %.247.i, i64 1
  br i1 %or.cond59.i, label %.preheader.i, label %.critedge4.i, !llvm.loop !720

.critedge4.i:                                     ; preds = %.preheader.i, %.critedge4.i
  %.250.i = phi ptr [ %23, %.critedge4.i ], [ %.149.i, %.preheader.i ]
  %21 = load i8, ptr %.250.i, align 1, !tbaa !26
  %22 = add i8 %21, -48
  %or.cond60.i = icmp ult i8 %22, 10
  %23 = getelementptr inbounds nuw i8, ptr %.250.i, i64 1
  br i1 %or.cond60.i, label %.critedge4.i, label %.critedge6.i, !llvm.loop !721

.critedge6.i:                                     ; preds = %.critedge4.i
  %24 = ptrtoint ptr %.247.i to i64
  %25 = ptrtoint ptr %.146.i to i64
  %26 = sub i64 %24, %25
  %27 = ptrtoint ptr %.250.i to i64
  %28 = ptrtoint ptr %.149.i to i64
  %.neg.i = sub i64 %28, %27
  %29 = add i64 %.neg.i, %26
  %30 = icmp eq i64 %29, 0
  br i1 %30, label %31, label %34

31:                                               ; preds = %.critedge6.i
  %32 = tail call i32 @strncmp(ptr noundef nonnull %.146.i, ptr noundef nonnull %.149.i, i64 noundef %26) #39
  %33 = sext i32 %32 to i64
  br label %34

34:                                               ; preds = %31, %.critedge6.i
  %.043.i = phi i64 [ %33, %31 ], [ %29, %.critedge6.i ]
  %35 = icmp slt i64 %.043.i, 0
  br i1 %35, label %_ZN12_GLOBAL__N_114VersionCompareEN13cmSystemTools9CompareOpEPKcS3_.exit, label %36

36:                                               ; preds = %34
  %.not.i = icmp eq i64 %.043.i, 0
  br i1 %.not.i, label %37, label %_ZN12_GLOBAL__N_114VersionCompareEN13cmSystemTools9CompareOpEPKcS3_.exit

37:                                               ; preds = %36
  %38 = icmp eq i8 %21, 46
  %spec.select.idx.i = zext i1 %38 to i64
  %spec.select.i = getelementptr inbounds nuw i8, ptr %.250.i, i64 %spec.select.idx.i
  %39 = icmp eq i8 %18, 46
  %.4.idx.i = zext i1 %39 to i64
  %.4.i = getelementptr inbounds nuw i8, ptr %.247.i, i64 %.4.idx.i
  br label %6, !llvm.loop !722

_ZN12_GLOBAL__N_114VersionCompareEN13cmSystemTools9CompareOpEPKcS3_.exit: ; preds = %9, %34, %36
  %.sink.i = phi i32 [ 2, %34 ], [ 4, %36 ], [ 1, %9 ]
  %40 = and i32 %.sink.i, %0
  %.2.i = icmp ne i32 %40, 0
  ret i1 %.2.i
}